; Function Attrs: nounwind uwtable
define ptr @l_Lean_Elab_Tactic_BVDecide_Frontend_Normalize_shortCircuitPass___elambda__1(ptr noundef %0, ptr noundef %1, ptr noundef %2, ptr noundef %3, ptr noundef %4, ptr noundef %5, ptr noundef %6, ptr noundef %7) #0 {
  %9 = load ptr, ptr @l_Lean_Elab_Tactic_BVDecide_Frontend_Normalize_shortCircuitPass___elambda__1___closed__1, align 8, !tbaa !10
  %10 = load ptr, ptr @l_Lean_Elab_Tactic_BVDecide_Frontend_Normalize_shortCircuitPass___elambda__1___closed__4, align 8, !tbaa !10
  %11 = load ptr, ptr @l_Lean_Elab_Tactic_BVDecide_Frontend_Normalize_shortCircuitPass___elambda__1___closed__6, align 8, !tbaa !10
  tail call void @lean_inc_heartbeat() #5
  %12 = tail call noalias ptr @mi_malloc_small(i64 noundef 48) #5
  %13 = icmp eq ptr %12, null
  br i1 %13, label %14, label %lean_alloc_closure.exit

14:                                               ; preds = %8
  tail call void @lean_internal_panic_out_of_memory() #6
  unreachable

lean_alloc_closure.exit:                          ; preds = %8
  %15 = getelementptr inbounds nuw i8, ptr %12, i64 4
  store i32 1, ptr %12, align 4, !tbaa !4
  store i32 -184549328, ptr %15, align 4
  %16 = getelementptr inbounds nuw i8, ptr %12, i64 8
  store ptr @l_Lean_Elab_Tactic_BVDecide_Frontend_Normalize_shortCircuitPass___elambda__1___lambda__1___boxed, ptr %16, align 8, !tbaa !10
  %17 = getelementptr inbounds nuw i8, ptr %12, i64 16
  store i16 10, ptr %17, align 8, !tbaa !14
  %18 = getelementptr inbounds nuw i8, ptr %12, i64 18
  store i16 3, ptr %18, align 2, !tbaa !14
  %19 = getelementptr inbounds nuw i8, ptr %12, i64 24
  store ptr %9, ptr %19, align 8, !tbaa !10
  %20 = getelementptr inbounds nuw i8, ptr %12, i64 32
  store ptr %10, ptr %20, align 8, !tbaa !10
  %21 = getelementptr inbounds nuw i8, ptr %12, i64 40
  store ptr %11, ptr %21, align 8, !tbaa !10
  %22 = ptrtoint ptr %0 to i64
  %23 = and i64 %22, 1
  %.not = icmp eq i64 %23, 0
  br i1 %.not, label %24, label %lean_inc.exit

24:                                               ; preds = %lean_alloc_closure.exit
  %.val.i = load i32, ptr %0, align 4, !tbaa !4
  %25 = icmp sgt i32 %.val.i, 0
  br i1 %25, label %26, label %28, !prof !9

26:                                               ; preds = %24
  %27 = add nuw i32 %.val.i, 1
  store i32 %27, ptr %0, align 4, !tbaa !4
  br label %lean_inc.exit

28:                                               ; preds = %24
  %.not.i = icmp eq i32 %.val.i, 0
  br i1 %.not.i, label %lean_inc.exit, label %29

29:                                               ; preds = %28
  tail call void @lean_inc_ref_cold(ptr noundef nonnull %0) #5
  br label %lean_inc.exit

lean_inc.exit:                                    ; preds = %29, %28, %26, %lean_alloc_closure.exit
  tail call void @lean_inc_heartbeat() #5
  %30 = tail call noalias ptr @mi_malloc_small(i64 noundef 48) #5
  %31 = icmp eq ptr %30, null
  br i1 %31, label %32, label %lean_alloc_closure.exit27

32:                                               ; preds = %lean_inc.exit
  tail call void @lean_internal_panic_out_of_memory() #6
  unreachable

lean_alloc_closure.exit27:                        ; preds = %lean_inc.exit
  %33 = getelementptr inbounds nuw i8, ptr %30, i64 4
  store i32 1, ptr %30, align 4, !tbaa !4
  store i32 -184549328, ptr %33, align 4
  %34 = getelementptr inbounds nuw i8, ptr %30, i64 8
  store ptr @l_Lean_Elab_Tactic_BVDecide_Frontend_Normalize_shortCircuitPass___elambda__1___lambda__2___boxed, ptr %34, align 8, !tbaa !10
  %35 = getelementptr inbounds nuw i8, ptr %30, i64 16
  store i16 11, ptr %35, align 8, !tbaa !14
  %36 = getelementptr inbounds nuw i8, ptr %30, i64 18
  store i16 3, ptr %36, align 2, !tbaa !14
  %37 = getelementptr inbounds nuw i8, ptr %30, i64 24
  store ptr inttoptr (i64 1 to ptr), ptr %37, align 8, !tbaa !10
  %38 = getelementptr inbounds nuw i8, ptr %30, i64 32
  store ptr %0, ptr %38, align 8, !tbaa !10
  %39 = getelementptr inbounds nuw i8, ptr %30, i64 40
  store ptr %9, ptr %39, align 8, !tbaa !10
  tail call void @lean_inc_heartbeat() #5
  %40 = tail call noalias ptr @mi_malloc_small(i64 noundef 40) #5
  %41 = icmp eq ptr %40, null
  br i1 %41, label %42, label %lean_alloc_closure.exit28

42:                                               ; preds = %lean_alloc_closure.exit27
  tail call void @lean_internal_panic_out_of_memory() #6
  unreachable

lean_alloc_closure.exit28:                        ; preds = %lean_alloc_closure.exit27
  %43 = getelementptr inbounds nuw i8, ptr %40, i64 4
  store i32 1, ptr %40, align 4, !tbaa !4
  store i32 -184549336, ptr %43, align 4
  %44 = getelementptr inbounds nuw i8, ptr %40, i64 8
  store ptr @l_ReaderT_bind___at_Lean_Elab_Tactic_BVDecide_Frontend_Normalize_shortCircuitPass___elambda__1___spec__1___rarg, ptr %44, align 8, !tbaa !10
  %45 = getelementptr inbounds nuw i8, ptr %40, i64 16
  store i16 9, ptr %45, align 8, !tbaa !14
  %46 = getelementptr inbounds nuw i8, ptr %40, i64 18
  store i16 2, ptr %46, align 2, !tbaa !14
  %47 = getelementptr inbounds nuw i8, ptr %40, i64 24
  store ptr %12, ptr %47, align 8, !tbaa !10
  %48 = getelementptr inbounds nuw i8, ptr %40, i64 32
  store ptr %30, ptr %48, align 8, !tbaa !10
  %49 = tail call ptr @l_Lean_MVarId_withContext___at_Lean_Elab_Tactic_BVDecide_Frontend_Normalize_shortCircuitPass___elambda__1___spec__2___rarg(ptr noundef %0, ptr noundef nonnull %40, ptr noundef %1, ptr noundef %2, ptr noundef %3, ptr noundef %4, ptr noundef %5, ptr noundef %6, ptr noundef %7)
  ret ptr %49
}